target datalayout = "e-m:e-p270:32:32-p271:32:32-p272:64:64-i64:64-i128:128-f80:128-n8:16:32:64-S128"
target triple = "x86_64-pc-linux-gnu"

%struct.fetch_negotiator = type { ptr, ptr, ptr, ptr, ptr, ptr }
%struct.data = type { %struct.prio_queue, i32 }
%struct.prio_queue = type { ptr, i64, ptr, i64, i64, ptr }

@marked = internal global i32 0, align 4
@the_repository = external global ptr, align 8

; Function Attrs: nounwind uwtable
define dso_local void @skipping_negotiator_init(ptr noundef %0) #0 {
  %2 = alloca ptr, align 8
  %3 = alloca ptr, align 8
  store ptr %0, ptr %2, align 8, !tbaa !4
  call void @llvm.lifetime.start.p0(i64 8, ptr %3) #7
  %4 = load ptr, ptr %2, align 8, !tbaa !4
  %5 = getelementptr inbounds nuw %struct.fetch_negotiator, ptr %4, i32 0, i32 0
  store ptr @known_common, ptr %5, align 8, !tbaa !9
  %6 = load ptr, ptr %2, align 8, !tbaa !4
  %7 = getelementptr inbounds nuw %struct.fetch_negotiator, ptr %6, i32 0, i32 1
  store ptr @add_tip, ptr %7, align 8, !tbaa !11
  %8 = load ptr, ptr %2, align 8, !tbaa !4
  %9 = getelementptr inbounds nuw %struct.fetch_negotiator, ptr %8, i32 0, i32 2
  store ptr @next, ptr %9, align 8, !tbaa !12
  %10 = load ptr, ptr %2, align 8, !tbaa !4
  %11 = getelementptr inbounds nuw %struct.fetch_negotiator, ptr %10, i32 0, i32 3
  store ptr @ack, ptr %11, align 8, !tbaa !13
  %12 = load ptr, ptr %2, align 8, !tbaa !4
  %13 = getelementptr inbounds nuw %struct.fetch_negotiator, ptr %12, i32 0, i32 4
  store ptr @release, ptr %13, align 8, !tbaa !14
  %14 = call ptr @xcalloc(i64 noundef 1, i64 noundef 56)
  store ptr %14, ptr %3, align 8, !tbaa !15
  %15 = load ptr, ptr %2, align 8, !tbaa !4
  %16 = getelementptr inbounds nuw %struct.fetch_negotiator, ptr %15, i32 0, i32 5
  store ptr %14, ptr %16, align 8, !tbaa !17
  %17 = load ptr, ptr %3, align 8, !tbaa !15
  %18 = getelementptr inbounds nuw %struct.data, ptr %17, i32 0, i32 0
  %19 = getelementptr inbounds nuw %struct.prio_queue, ptr %18, i32 0, i32 0
  store ptr @compare, ptr %19, align 8, !tbaa !18
  %20 = load i32, ptr @marked, align 4, !tbaa !24
  %21 = icmp ne i32 %20, 0
  br i1 %21, label %22, label %26

22:                                               ; preds = %1
  %23 = load ptr, ptr @the_repository, align 8, !tbaa !25
  %24 = call ptr @get_main_ref_store(ptr noundef %23)
  %25 = call i32 @refs_for_each_ref(ptr noundef %24, ptr noundef @clear_marks, ptr noundef null)
  br label %26

26:                                               ; preds = %22, %1
  store i32 1, ptr @marked, align 4, !tbaa !24
  call void @llvm.lifetime.end.p0(i64 8, ptr %3) #7
  ret void
}