; Function Attrs: nounwind uwtable
define dso_local void @skipping_negotiator_init(ptr noundef writeonly captures(none) initializes((0, 48)) %0) local_unnamed_addr #0 {
  store ptr @known_common, ptr %0, align 8, !tbaa !4
  %2 = getelementptr inbounds nuw i8, ptr %0, i64 8
  store ptr @add_tip, ptr %2, align 8, !tbaa !9
  %3 = getelementptr inbounds nuw i8, ptr %0, i64 16
  store ptr @next, ptr %3, align 8, !tbaa !10
  %4 = getelementptr inbounds nuw i8, ptr %0, i64 24
  store ptr @ack, ptr %4, align 8, !tbaa !11
  %5 = getelementptr inbounds nuw i8, ptr %0, i64 32
  store ptr @release, ptr %5, align 8, !tbaa !12
  %6 = tail call ptr @xcalloc(i64 noundef 1, i64 noundef 56) #6
  %7 = getelementptr inbounds nuw i8, ptr %0, i64 40
  store ptr %6, ptr %7, align 8, !tbaa !13
  store ptr @compare, ptr %6, align 8, !tbaa !14
  %.b = load i1, ptr @marked, align 4
  br i1 %.b, label %8, label %12

8:                                                ; preds = %1
  %9 = load ptr, ptr @the_repository, align 8, !tbaa !20
  %10 = tail call ptr @get_main_ref_store(ptr noundef %9) #6
  %11 = tail call i32 @refs_for_each_ref(ptr noundef %10, ptr noundef nonnull @clear_marks, ptr noundef null) #6
  br label %12

12:                                               ; preds = %8, %1
  store i1 true, ptr @marked, align 4
  ret void
}